# SymbolsHelper-Confirmed: 0.9.0 amd64
libqt5-ukui-style.so.1 libqt5-ukui-style1 #MINVER#
* Build-Depends-Package: libqt5-ukui-style-dev
 _ZN10QByteArrayD1Ev@Base 0.9.0
 _ZN10QByteArrayD2Ev@Base 0.9.0
 (optional=templinst)_ZN12QtConcurrent15RunFunctionTaskIvE3runEv@Base 0.9.0
 (optional=templinst)_ZN12QtConcurrent19RunFunctionTaskBaseIvE3runEv@Base 0.9.0
 _ZN13AnimatorIface12stopAnimatorERK7QString@Base 0.9.0
 _ZN13AnimatorIface13startAnimatorERK7QString@Base 0.9.0
 _ZN13AnimatorIface19currentAnimatorTimeERK7QString@Base 0.9.0
 _ZN13AnimatorIface19setAnimatorDurationERK7QStringi@Base 0.9.0
 _ZN13AnimatorIface19setAnimatorEndValueERK7QStringRK8QVariant@Base 0.9.0
 _ZN13AnimatorIface21setAnimatorStartValueERK7QStringRK8QVariant@Base 0.9.0
 _ZN13AnimatorIface22totalAnimationDurationERK7QString@Base 0.9.0
 _ZN13AnimatorIface27setAnimatorDirectionForwardERK7QStringb@Base 0.9.0
 _ZN13AnimatorIface5valueERK7QString@Base 0.9.0
 _ZN13AnimatorIface9isRunningERK7QString@Base 0.9.0
 _ZN13AnimatorIfaceD0Ev@Base 0.9.0
 _ZN13AnimatorIfaceD1Ev@Base 0.9.0
 _ZN13AnimatorIfaceD2Ev@Base 0.9.0
 _ZN13InternalStyle11qt_metacallEN11QMetaObject4CallEiPPv@Base 0.9.0
 _ZN13InternalStyle11qt_metacastEPKc@Base 0.9.0
 _ZN13InternalStyle16staticMetaObjectE@Base 0.9.0
 _ZN13InternalStyle17setUseSystemStyleEb@Base 0.9.0
 _ZN13InternalStyle27useSystemStylePolicyChangedEb@Base 0.9.0
 _ZN13InternalStyleC1E7QString@Base 0.9.0
 _ZN13InternalStyleC1EP6QStyle@Base 0.9.0
 _ZN13InternalStyleC2E7QString@Base 0.9.0
 _ZN13InternalStyleC2EP6QStyle@Base 0.9.0
 _ZN13InternalStyleD0Ev@Base 0.9.0
 _ZN13InternalStyleD1Ev@Base 0.9.0
 _ZN13InternalStyleD2Ev@Base 0.9.0
 _ZN15AnimationHelper11qt_metacallEN11QMetaObject4CallEiPPv@Base 0.9.0
 _ZN15AnimationHelper11qt_metacastEPKc@Base 0.9.0
 _ZN15AnimationHelper14registerWidgetEP7QWidget@Base 0.9.0
 _ZN15AnimationHelper16staticMetaObjectE@Base 0.9.0
 _ZN15AnimationHelper16unregisterWidgetEP7QWidget@Base 0.9.0
 _ZN15AnimationHelperC1EP7QObject@Base 0.9.0
 _ZN15AnimationHelperC2EP7QObject@Base 0.9.0
 _ZN15AnimationHelperD0Ev@Base 0.9.0
 _ZN15AnimationHelperD1Ev@Base 0.9.0
 _ZN15AnimationHelperD2Ev@Base 0.9.0
 (optional=templinst)_ZN16QFutureInterfaceIvED0Ev@Base 0.9.0
 (optional=templinst)_ZN16QFutureInterfaceIvED1Ev@Base 0.9.0
 (optional=templinst)_ZN16QFutureInterfaceIvED2Ev@Base 0.9.0
 (optional=templinst)_ZN17QtMetaTypePrivate23QMetaTypeFunctionHelperIN24ApplicationStyleSettings13ColorStretagyELb1EE8DestructEPv@Base 0.9.0
 (optional=templinst)_ZN17QtMetaTypePrivate23QMetaTypeFunctionHelperIN24ApplicationStyleSettings13ColorStretagyELb1EE9ConstructEPvPKv@Base 0.9.0
 (optional=templinst)_ZN17QtMetaTypePrivate23QMetaTypeFunctionHelperIN24ApplicationStyleSettings13StyleStretagyELb1EE8DestructEPv@Base 0.9.0
 (optional=templinst)_ZN17QtMetaTypePrivate23QMetaTypeFunctionHelperIN24ApplicationStyleSettings13StyleStretagyELb1EE9ConstructEPvPKv@Base 0.9.0
 _ZN17UKUIStyleSettings11qt_metacallEN11QMetaObject4CallEiPPv@Base 0.9.0
 _ZN17UKUIStyleSettings11qt_metacastEPKc@Base 0.9.0
 _ZN17UKUIStyleSettings14globalInstanceEv@Base 0.9.0
 _ZN17UKUIStyleSettings16staticMetaObjectE@Base 0.9.0
 _ZN17UKUIStyleSettingsC1Ev@Base 0.9.0
 _ZN17UKUIStyleSettingsC2Ev@Base 0.9.0
 _ZN17UKUIStyleSettingsD0Ev@Base 0.9.0
 _ZN17UKUIStyleSettingsD1Ev@Base 0.9.0
 _ZN17UKUIStyleSettingsD2Ev@Base 0.9.0
 _ZN24ApplicationStyleSettings11getInstanceEv@Base 0.9.0
 _ZN24ApplicationStyleSettings11qt_metacallEN11QMetaObject4CallEiPPv@Base 0.9.0
 _ZN24ApplicationStyleSettings11qt_metacastEPKc@Base 0.9.0
 _ZN24ApplicationStyleSettings11refreshDataEb@Base 0.9.0
 _ZN24ApplicationStyleSettings14setCustomStyleERK7QString@Base 0.9.0
 _ZN24ApplicationStyleSettings16setColorStretagyENS_13ColorStretagyE@Base 0.9.0
 _ZN24ApplicationStyleSettings16setStyleStretagyENS_13StyleStretagyE@Base 0.9.0
 _ZN24ApplicationStyleSettings16staticMetaObjectE@Base 0.9.0
 _ZN24ApplicationStyleSettings19readPalleteSettingsEv@Base 0.9.0
 _ZN24ApplicationStyleSettings20colorStretageChangedERKNS_13ColorStretagyE@Base 0.9.0
 _ZN24ApplicationStyleSettings20styleStretageChangedERKNS_13StyleStretagyE@Base 0.9.0
 _ZN24ApplicationStyleSettings22currentCustomStyleNameEv@Base 0.9.0
 _ZN24ApplicationStyleSettings8getColorERKN8QPalette9ColorRoleERKNS0_10ColorGroupE@Base 0.9.0
 _ZN24ApplicationStyleSettings8setColorERKN8QPalette9ColorRoleERK6QColorRKNS0_10ColorGroupE@Base 0.9.0
 _ZN24ApplicationStyleSettingsC1EP7QObject@Base 0.9.0
 _ZN24ApplicationStyleSettingsC2EP7QObject@Base 0.9.0
 _ZN24ApplicationStyleSettingsD0Ev@Base 0.9.0
 _ZN24ApplicationStyleSettingsD1Ev@Base 0.9.0
 _ZN24ApplicationStyleSettingsD2Ev@Base 0.9.0
 _ZN26UKUITabWidgetAnimatorIface10bindWidgetEP7QWidget@Base 0.9.0
 _ZN26UKUITabWidgetAnimatorIface13unboundWidgetEv@Base 0.9.0
 _ZN4UKUI9ScrollBar26DefaultInteractionAnimator10bindWidgetEP7QWidget@Base 0.9.0
 _ZN4UKUI9ScrollBar26DefaultInteractionAnimator11qt_metacallEN11QMetaObject4CallEiPPv@Base 0.9.0
 _ZN4UKUI9ScrollBar26DefaultInteractionAnimator11qt_metacastEPKc@Base 0.9.0
 _ZN4UKUI9ScrollBar26DefaultInteractionAnimator12stopAnimatorERK7QString@Base 0.9.0
 _ZN4UKUI9ScrollBar26DefaultInteractionAnimator13boundedWidgetEv@Base 0.9.0
 _ZN4UKUI9ScrollBar26DefaultInteractionAnimator13startAnimatorERK7QString@Base 0.9.0
 _ZN4UKUI9ScrollBar26DefaultInteractionAnimator13unboundWidgetEv@Base 0.9.0
 _ZN4UKUI9ScrollBar26DefaultInteractionAnimator16staticMetaObjectE@Base 0.9.0
 _ZN4UKUI9ScrollBar26DefaultInteractionAnimator19currentAnimatorTimeERK7QString@Base 0.9.0
 _ZN4UKUI9ScrollBar26DefaultInteractionAnimator19setAnimatorDurationERK7QStringi@Base 0.9.0
 _ZN4UKUI9ScrollBar26DefaultInteractionAnimator19setAnimatorEndValueERK7QStringRK8QVariant@Base 0.9.0
 _ZN4UKUI9ScrollBar26DefaultInteractionAnimator21setAnimatorStartValueERK7QStringRK8QVariant@Base 0.9.0
 _ZN4UKUI9ScrollBar26DefaultInteractionAnimator22totalAnimationDurationERK7QString@Base 0.9.0
 _ZN4UKUI9ScrollBar26DefaultInteractionAnimator27setAnimatorDirectionForwardERK7QStringb@Base 0.9.0
 _ZN4UKUI9ScrollBar26DefaultInteractionAnimator5valueERK7QString@Base 0.9.0
 _ZN4UKUI9ScrollBar26DefaultInteractionAnimator9isRunningERK7QString@Base 0.9.0
 _ZN4UKUI9ScrollBar26DefaultInteractionAnimatorC1EP7QObject@Base 0.9.0
 _ZN4UKUI9ScrollBar26DefaultInteractionAnimatorC2EP7QObject@Base 0.9.0
 _ZN4UKUI9ScrollBar26DefaultInteractionAnimatorD0Ev@Base 0.9.0
 _ZN4UKUI9ScrollBar26DefaultInteractionAnimatorD1Ev@Base 0.9.0
 _ZN4UKUI9ScrollBar26DefaultInteractionAnimatorD2Ev@Base 0.9.0
 _ZN4UKUI9TabWidget20DefaultSlideAnimator11clearPixmapEv@Base 0.9.0
 _ZN4UKUI9TabWidget20DefaultSlideAnimator11eventFilterEP7QObjectP6QEvent@Base 0.9.0
 _ZN4UKUI9TabWidget20DefaultSlideAnimator11qt_metacallEN11QMetaObject4CallEiPPv@Base 0.9.0
 _ZN4UKUI9TabWidget20DefaultSlideAnimator11qt_metacastEPKc@Base 0.9.0
 _ZN4UKUI9TabWidget20DefaultSlideAnimator12watchSubPageEP7QWidget@Base 0.9.0
 _ZN4UKUI9TabWidget20DefaultSlideAnimator13bindTabWidgetEP10QTabWidget@Base 0.9.0
 _ZN4UKUI9TabWidget20DefaultSlideAnimator13boundedWidgetEv@Base 0.9.0
 _ZN4UKUI9TabWidget20DefaultSlideAnimator13filterSubPageEP7QObjectP6QEvent@Base 0.9.0
 _ZN4UKUI9TabWidget20DefaultSlideAnimator13filterTmpPageEP7QObjectP6QEvent@Base 0.9.0
 _ZN4UKUI9TabWidget20DefaultSlideAnimator15filterTabWidgetEP7QObjectP6QEvent@Base 0.9.0
 _ZN4UKUI9TabWidget20DefaultSlideAnimator16staticMetaObjectE@Base 0.9.0
 _ZN4UKUI9TabWidget20DefaultSlideAnimator16unboundTabWidgetEv@Base 0.9.0
 _ZN4UKUI9TabWidget20DefaultSlideAnimator19filterStackedWidgetEP7QObjectP6QEvent@Base 0.9.0
 _ZN4UKUI9TabWidget20DefaultSlideAnimatorC1EP7QObject@Base 0.9.0
 _ZN4UKUI9TabWidget20DefaultSlideAnimatorC2EP7QObject@Base 0.9.0
 _ZN4UKUI9TabWidget20DefaultSlideAnimatorD0Ev@Base 0.9.0
 _ZN4UKUI9TabWidget20DefaultSlideAnimatorD1Ev@Base 0.9.0
 _ZN4UKUI9TabWidget20DefaultSlideAnimatorD2Ev@Base 0.9.0
 _ZN4UKUI9TabWidget27DefaultSlideAnimatorFactory10isParallelEv@Base 0.9.0
 _ZN4UKUI9TabWidget27DefaultSlideAnimatorFactory10pluginTypeEv@Base 0.9.0
 _ZN4UKUI9TabWidget27DefaultSlideAnimatorFactory11descriptionEv@Base 0.9.0
 _ZN4UKUI9TabWidget27DefaultSlideAnimatorFactory11excludeKeysEv@Base 0.9.0
 _ZN4UKUI9TabWidget27DefaultSlideAnimatorFactory11qt_metacallEN11QMetaObject4CallEiPPv@Base 0.9.0
 _ZN4UKUI9TabWidget27DefaultSlideAnimatorFactory11qt_metacastEPKc@Base 0.9.0
 _ZN4UKUI9TabWidget27DefaultSlideAnimatorFactory14createAnimatorEv@Base 0.9.0
 _ZN4UKUI9TabWidget27DefaultSlideAnimatorFactory16staticMetaObjectE@Base 0.9.0
 _ZN4UKUI9TabWidget27DefaultSlideAnimatorFactory2idEv@Base 0.9.0
 _ZN4UKUI9TabWidget27DefaultSlideAnimatorFactory3keyEv@Base 0.9.0
 _ZN4UKUI9TabWidget27DefaultSlideAnimatorFactory5briefEv@Base 0.9.0
 _ZN4UKUI9TabWidget27DefaultSlideAnimatorFactory9inhertKeyEv@Base 0.9.0
 _ZN4UKUI9TabWidget27DefaultSlideAnimatorFactoryC1EP7QObject@Base 0.9.0
 _ZN4UKUI9TabWidget27DefaultSlideAnimatorFactoryC2EP7QObject@Base 0.9.0
 _ZN4UKUI9TabWidget27DefaultSlideAnimatorFactoryD0Ev@Base 0.9.0
 _ZN4UKUI9TabWidget27DefaultSlideAnimatorFactoryD1Ev@Base 0.9.0
 _ZN4UKUI9TabWidget27DefaultSlideAnimatorFactoryD2Ev@Base 0.9.0
 (optional=templinst)_ZN5QHashIPK7QWidgetP13AnimatorIfaceE11deleteNode2EPN9QHashData4NodeE@Base 0.9.0
 (optional=templinst)_ZN5QHashIPK7QWidgetP13AnimatorIfaceE13duplicateNodeEPN9QHashData4NodeEPv@Base 0.9.0
 (optional=templinst)_ZN5QListI7QStringE18detach_helper_growEii@Base 0.9.0
 (optional=templinst)_ZN5QListI7QStringE6appendERKS0_@Base 0.9.0
 (optional=templinst)_ZN5QListI7QStringEC1ERKS1_@Base 0.9.0
 (optional=templinst)_ZN5QListI7QStringEC2ERKS1_@Base 0.9.0
 (optional=templinst)_ZN5QListI7QStringED1Ev@Base 0.9.0
 (optional=templinst)_ZN5QListI7QStringED2Ev@Base 0.9.0
 _ZN7QStringD1Ev@Base 0.9.0
 _ZN7QStringD2Ev@Base 0.9.0
 _ZN8MPSStyle11qt_metacallEN11QMetaObject4CallEiPPv@Base 0.9.0
 _ZN8MPSStyle11qt_metacastEPKc@Base 0.9.0
 _ZN8MPSStyle16staticMetaObjectE@Base 0.9.0
 _ZN8MPSStyle6polishEP12QApplication@Base 0.9.0
 _ZN8MPSStyle6polishEP7QWidget@Base 0.9.0
 _ZN8MPSStyle6polishER8QPalette@Base 0.9.0
 _ZN8MPSStyle8unpolishEP12QApplication@Base 0.9.0
 _ZN8MPSStyle8unpolishEP7QWidget@Base 0.9.0
 _ZN8MPSStyleC1Eb@Base 0.9.0
 _ZN8MPSStyleC2Eb@Base 0.9.0
 _ZN8MPSStyleD0Ev@Base 0.9.0
 _ZN8MPSStyleD1Ev@Base 0.9.0
 _ZN8MPSStyleD2Ev@Base 0.9.0
 _ZNK13InternalStyle10metaObjectEv@Base 0.9.0
 _ZNK15AnimationHelper10metaObjectEv@Base 0.9.0
 _ZNK17UKUIStyleSettings10metaObjectEv@Base 0.9.0
 _ZNK24ApplicationStyleSettings10metaObjectEv@Base 0.9.0
 _ZNK4UKUI9ScrollBar26DefaultInteractionAnimator10metaObjectEv@Base 0.9.0
 _ZNK4UKUI9TabWidget20DefaultSlideAnimator10metaObjectEv@Base 0.9.0
 _ZNK4UKUI9TabWidget27DefaultSlideAnimatorFactory10metaObjectEv@Base 0.9.0
 _ZNK8MPSStyle10metaObjectEv@Base 0.9.0
 _ZNK8MPSStyle11drawControlEN6QStyle14ControlElementEPK12QStyleOptionP8QPainterPK7QWidget@Base 0.9.0
 _ZNK8MPSStyle11pixelMetricEN6QStyle11PixelMetricEPK12QStyleOptionPK7QWidget@Base 0.9.0
 _ZNK8MPSStyle12drawItemTextEP8QPainterRK5QRectiRK8QPalettebRK7QStringNS5_9ColorRoleE@Base 0.9.0
 _ZNK8MPSStyle12itemTextRectERK12QFontMetricsRK5QRectibRK7QString@Base 0.9.0
 _ZNK8MPSStyle12standardIconEN6QStyle14StandardPixmapEPK12QStyleOptionPK7QWidget@Base 0.9.0
 _ZNK8MPSStyle13drawPrimitiveEN6QStyle16PrimitiveElementEPK12QStyleOptionP8QPainterPK7QWidget@Base 0.9.0
 _ZNK8MPSStyle14drawItemPixmapEP8QPainterRK5QRectiRK7QPixmap@Base 0.9.0
 _ZNK8MPSStyle14itemPixmapRectERK5QRectiRK7QPixmap@Base 0.9.0
 _ZNK8MPSStyle14subControlRectEN6QStyle14ComplexControlEPK19QStyleOptionComplexNS0_10SubControlEPK7QWidget@Base 0.9.0
 _ZNK8MPSStyle14subElementRectEN6QStyle10SubElementEPK12QStyleOptionPK7QWidget@Base 0.9.0
 _ZNK8MPSStyle15standardPaletteEv@Base 0.9.0
 _ZNK8MPSStyle16sizeFromContentsEN6QStyle12ContentsTypeEPK12QStyleOptionRK5QSizePK7QWidget@Base 0.9.0
 _ZNK8MPSStyle18drawComplexControlEN6QStyle14ComplexControlEPK19QStyleOptionComplexP8QPainterPK7QWidget@Base 0.9.0
 _ZNK8MPSStyle19generatedIconPixmapEN5QIcon4ModeERK7QPixmapPK12QStyleOption@Base 0.9.0
 _ZNK8MPSStyle21hitTestComplexControlEN6QStyle14ComplexControlEPK19QStyleOptionComplexRK6QPointPK7QWidget@Base 0.9.0
 _ZNK8MPSStyle9styleHintEN6QStyle9StyleHintEPK12QStyleOptionPK7QWidgetP16QStyleHintReturn@Base 0.9.0
 _ZTI13AnimatorIface@Base 0.9.0
 _ZTI13InternalStyle@Base 0.9.0
 _ZTI15AnimationHelper@Base 0.9.0
 _ZTI16QFutureInterfaceIvE@Base 0.9.0
 _ZTI17UKUIStyleSettings@Base 0.9.0
 _ZTI23UKUIAnimatorPluginIface@Base 0.9.0
 _ZTI24ApplicationStyleSettings@Base 0.9.0
 _ZTI26UKUITabWidgetAnimatorIface@Base 0.9.0
 _ZTI32UKUITabWidgetAnimatorPluginIface@Base 0.9.0
 _ZTI8MPSStyle@Base 0.9.0
 _ZTIN12QtConcurrent15RunFunctionTaskIvEE@Base 0.9.0
 _ZTIN12QtConcurrent19RunFunctionTaskBaseIvEE@Base 0.9.0
 _ZTIN4UKUI9ScrollBar26DefaultInteractionAnimatorE@Base 0.9.0
 _ZTIN4UKUI9TabWidget20DefaultSlideAnimatorE@Base 0.9.0
 _ZTIN4UKUI9TabWidget27DefaultSlideAnimatorFactoryE@Base 0.9.0
 _ZTS13AnimatorIface@Base 0.9.0
 _ZTS13InternalStyle@Base 0.9.0
 _ZTS15AnimationHelper@Base 0.9.0
 _ZTS16QFutureInterfaceIvE@Base 0.9.0
 _ZTS17UKUIStyleSettings@Base 0.9.0
 _ZTS23UKUIAnimatorPluginIface@Base 0.9.0
 _ZTS24ApplicationStyleSettings@Base 0.9.0
 _ZTS26UKUITabWidgetAnimatorIface@Base 0.9.0
 _ZTS32UKUITabWidgetAnimatorPluginIface@Base 0.9.0
 _ZTS8MPSStyle@Base 0.9.0
 _ZTSN12QtConcurrent15RunFunctionTaskIvEE@Base 0.9.0
 _ZTSN12QtConcurrent19RunFunctionTaskBaseIvEE@Base 0.9.0
 _ZTSN4UKUI9ScrollBar26DefaultInteractionAnimatorE@Base 0.9.0
 _ZTSN4UKUI9TabWidget20DefaultSlideAnimatorE@Base 0.9.0
 _ZTSN4UKUI9TabWidget27DefaultSlideAnimatorFactoryE@Base 0.9.0
 _ZTV13InternalStyle@Base 0.9.0
 _ZTV15AnimationHelper@Base 0.9.0
 _ZTV16QFutureInterfaceIvE@Base 0.9.0
 _ZTV17UKUIStyleSettings@Base 0.9.0
 _ZTV24ApplicationStyleSettings@Base 0.9.0
 _ZTV8MPSStyle@Base 0.9.0
 _ZTVN12QtConcurrent19RunFunctionTaskBaseIvEE@Base 0.9.0
 _ZTVN4UKUI9ScrollBar26DefaultInteractionAnimatorE@Base 0.9.0
 _ZTVN4UKUI9TabWidget20DefaultSlideAnimatorE@Base 0.9.0
 _ZTVN4UKUI9TabWidget27DefaultSlideAnimatorFactoryE@Base 0.9.0
 (optional=templinst)_ZZN18QMetaTypeIdQObjectIN24ApplicationStyleSettings13ColorStretagyELi16EE14qt_metatype_idEvE11metatype_id@Base 0.9.0
 (optional=templinst)_ZZN18QMetaTypeIdQObjectIN24ApplicationStyleSettings13StyleStretagyELi16EE14qt_metatype_idEvE11metatype_id@Base 0.9.0
 (c++)"non-virtual thunk to QtConcurrent::RunFunctionTask<void>::run()@Base" 0.9.0
 (c++)"non-virtual thunk to QtConcurrent::RunFunctionTaskBase<void>::run()@Base" 0.9.0
 (c++)"non-virtual thunk to UKUI::ScrollBar::DefaultInteractionAnimator::bindWidget(QWidget*)@Base" 0.9.0
 (c++)"non-virtual thunk to UKUI::ScrollBar::DefaultInteractionAnimator::boundedWidget()@Base" 0.9.0
 (c++)"non-virtual thunk to UKUI::ScrollBar::DefaultInteractionAnimator::currentAnimatorTime(QString const&)@Base" 0.9.0
 (c++)"non-virtual thunk to UKUI::ScrollBar::DefaultInteractionAnimator::isRunning(QString const&)@Base" 0.9.0
 (c++)"non-virtual thunk to UKUI::ScrollBar::DefaultInteractionAnimator::setAnimatorDirectionForward(QString const&, bool)@Base" 0.9.0
 (c++)"non-virtual thunk to UKUI::ScrollBar::DefaultInteractionAnimator::setAnimatorDuration(QString const&, int)@Base" 0.9.0
 (c++)"non-virtual thunk to UKUI::ScrollBar::DefaultInteractionAnimator::setAnimatorEndValue(QString const&, QVariant const&)@Base" 0.9.0
 (c++)"non-virtual thunk to UKUI::ScrollBar::DefaultInteractionAnimator::setAnimatorStartValue(QString const&, QVariant const&)@Base" 0.9.0
 (c++)"non-virtual thunk to UKUI::ScrollBar::DefaultInteractionAnimator::startAnimator(QString const&)@Base" 0.9.0
 (c++)"non-virtual thunk to UKUI::ScrollBar::DefaultInteractionAnimator::stopAnimator(QString const&)@Base" 0.9.0
 (c++)"non-virtual thunk to UKUI::ScrollBar::DefaultInteractionAnimator::totalAnimationDuration(QString const&)@Base" 0.9.0
 (c++)"non-virtual thunk to UKUI::ScrollBar::DefaultInteractionAnimator::unboundWidget()@Base" 0.9.0
 (c++)"non-virtual thunk to UKUI::ScrollBar::DefaultInteractionAnimator::value(QString const&)@Base" 0.9.0
 (c++)"non-virtual thunk to UKUI::ScrollBar::DefaultInteractionAnimator::~DefaultInteractionAnimator()@Base" 0.9.0
 (c++)"non-virtual thunk to UKUI::TabWidget::DefaultSlideAnimator::bindTabWidget(QTabWidget*)@Base" 0.9.0
 (c++)"non-virtual thunk to UKUI::TabWidget::DefaultSlideAnimator::boundedWidget()@Base" 0.9.0
 (c++)"non-virtual thunk to UKUI::TabWidget::DefaultSlideAnimator::unboundTabWidget()@Base" 0.9.0
 (c++)"non-virtual thunk to UKUI::TabWidget::DefaultSlideAnimator::~DefaultSlideAnimator()@Base" 0.9.0
 (c++)"non-virtual thunk to UKUI::TabWidget::DefaultSlideAnimatorFactory::brief()@Base" 0.9.0
 (c++)"non-virtual thunk to UKUI::TabWidget::DefaultSlideAnimatorFactory::createAnimator()@Base" 0.9.0
 (c++)"non-virtual thunk to UKUI::TabWidget::DefaultSlideAnimatorFactory::description()@Base" 0.9.0
 (c++)"non-virtual thunk to UKUI::TabWidget::DefaultSlideAnimatorFactory::excludeKeys()@Base" 0.9.0
 (c++)"non-virtual thunk to UKUI::TabWidget::DefaultSlideAnimatorFactory::id()@Base" 0.9.0
 (c++)"non-virtual thunk to UKUI::TabWidget::DefaultSlideAnimatorFactory::inhertKey()@Base" 0.9.0
 (c++)"non-virtual thunk to UKUI::TabWidget::DefaultSlideAnimatorFactory::isParallel()@Base" 0.9.0
 (c++)"non-virtual thunk to UKUI::TabWidget::DefaultSlideAnimatorFactory::key()@Base" 0.9.0
 (c++)"non-virtual thunk to UKUI::TabWidget::DefaultSlideAnimatorFactory::pluginType()@Base" 0.9.0
 (c++)"non-virtual thunk to UKUI::TabWidget::DefaultSlideAnimatorFactory::~DefaultSlideAnimatorFactory()@Base" 0.9.0
